; Function Attrs: mustprogress uwtable
define void @_ZN2cv4gapi9fitLine3DERKNS_6GArrayINS_7Point3_IiEEEENS_13DistanceTypesEddd(ptr dead_on_unwind noalias writable sret(%"class.cv::GOpaque.16") align 8 %0, ptr nocapture noundef nonnull readonly align 8 dereferenceable(32) %1, i32 noundef %2, double noundef %3, double noundef %4, double noundef %5) local_unnamed_addr #3 personality ptr @__gxx_personality_v0 {
  %7 = alloca %"class.cv::GArray.17", align 8
  %8 = load ptr, ptr %1, align 8
  store ptr %8, ptr %7, align 8
  %9 = getelementptr inbounds i8, ptr %7, i64 8
  %10 = getelementptr inbounds i8, ptr %1, i64 8
  %11 = load ptr, ptr %10, align 8
  store ptr %11, ptr %9, align 8
  %.not.i.i.i.i.i = icmp eq ptr %11, null
  br i1 %.not.i.i.i.i.i, label %_ZNSt10shared_ptrIN2cv7GOriginEEC2ERKS2_.exit.i.i, label %12

12:                                               ; preds = %6
  %13 = getelementptr inbounds i8, ptr %11, i64 8
  %14 = load i8, ptr @__libc_single_threaded, align 1
  %.not.i.i.i.i.i.i = icmp eq i8 %14, 0
  br i1 %.not.i.i.i.i.i.i, label %18, label %15

15:                                               ; preds = %12
  %16 = load i32, ptr %13, align 4
  %17 = add nsw i32 %16, 1
  store i32 %17, ptr %13, align 4
  br label %_ZNSt10shared_ptrIN2cv7GOriginEEC2ERKS2_.exit.i.i

18:                                               ; preds = %12
  %19 = atomicrmw volatile add ptr %13, i32 1 acq_rel, align 4
  br label %_ZNSt10shared_ptrIN2cv7GOriginEEC2ERKS2_.exit.i.i

_ZNSt10shared_ptrIN2cv7GOriginEEC2ERKS2_.exit.i.i: ; preds = %18, %15, %6
  %20 = getelementptr inbounds i8, ptr %7, i64 16
  %21 = getelementptr inbounds i8, ptr %1, i64 16
  %22 = load ptr, ptr %21, align 8
  store ptr %22, ptr %20, align 8
  %23 = getelementptr inbounds i8, ptr %7, i64 24
  %24 = getelementptr inbounds i8, ptr %1, i64 24
  %25 = load ptr, ptr %24, align 8
  store ptr %25, ptr %23, align 8
  %.not.i.i.i3.i.i = icmp eq ptr %25, null
  br i1 %.not.i.i.i3.i.i, label %_ZN2cv6GArrayINS_7Point3_IiEEEC2ERKS3_.exit, label %26

26:                                               ; preds = %_ZNSt10shared_ptrIN2cv7GOriginEEC2ERKS2_.exit.i.i
  %27 = getelementptr inbounds i8, ptr %25, i64 8
  %28 = load i8, ptr @__libc_single_threaded, align 1
  %.not.i.i.i.i4.i.i = icmp eq i8 %28, 0
  br i1 %.not.i.i.i.i4.i.i, label %32, label %29

29:                                               ; preds = %26
  %30 = load i32, ptr %27, align 4
  %31 = add nsw i32 %30, 1
  store i32 %31, ptr %27, align 4
  br label %_ZN2cv6GArrayINS_7Point3_IiEEEC2ERKS3_.exit

32:                                               ; preds = %26
  %33 = atomicrmw volatile add ptr %27, i32 1 acq_rel, align 4
  br label %_ZN2cv6GArrayINS_7Point3_IiEEEC2ERKS3_.exit

_ZN2cv6GArrayINS_7Point3_IiEEEC2ERKS3_.exit:      ; preds = %_ZNSt10shared_ptrIN2cv7GOriginEEC2ERKS2_.exit.i.i, %29, %32
  invoke void @_ZN2cv11GKernelTypeINS_4gapi7imgproc19GFitLine3DVector32SESt8functionIFNS_7GOpaqueINS_3VecIfLi6EEEEENS_6GArrayINS_7Point3_IiEEEENS_13DistanceTypesEdddEEE2onESC_SD_ddd(ptr dead_on_unwind writable sret(%"class.cv::GOpaque.16") align 8 %0, ptr noundef nonnull %7, i32 noundef %2, double noundef %3, double noundef %4, double noundef %5)
          to label %34 unwind label %35

34:                                               ; preds = %_ZN2cv6GArrayINS_7Point3_IiEEEC2ERKS3_.exit
  call void @_ZN2cv6detail7GArrayUD2Ev(ptr noundef nonnull align 8 dereferenceable(32) %7) #18
  ret void

35:                                               ; preds = %_ZN2cv6GArrayINS_7Point3_IiEEEC2ERKS3_.exit
  %36 = landingpad { ptr, i32 }
          cleanup
  call void @_ZN2cv6detail7GArrayUD2Ev(ptr noundef nonnull align 8 dereferenceable(32) %7) #18
  resume { ptr, i32 } %36
}